;--------------------------------------------------------
; File Created by SDCC : free open source ANSI-C Compiler
; Version 3.0.0 #6037 (Oct 31 2010) (MINGW32)
; This file was generated Fri Jan 13 02:12:09 2017
;--------------------------------------------------------
	.module main
	.optsdcc -mmcs51 --model-small
	
;--------------------------------------------------------
; Public variables in this module
;--------------------------------------------------------
	.globl _main
	.globl _play
	.globl _initialize
	.globl _pause
	.globl _TF1
	.globl _TR1
	.globl _TF0
	.globl _TR0
	.globl _IE1
	.globl _IT1
	.globl _IE0
	.globl _IT0
	.globl _SM0
	.globl _SM1
	.globl _SM2
	.globl _REN
	.globl _TB8
	.globl _RB8
	.globl _TI
	.globl _RI
	.globl _CY
	.globl _AC
	.globl _F0
	.globl _RS1
	.globl _RS0
	.globl _OV
	.globl _F1
	.globl _P
	.globl _RD
	.globl _WR
	.globl _T1
	.globl _T0
	.globl _INT1
	.globl _INT0
	.globl _TXD0
	.globl _TXD
	.globl _RXD0
	.globl _RXD
	.globl _P3_7
	.globl _P3_6
	.globl _P3_5
	.globl _P3_4
	.globl _P3_3
	.globl _P3_2
	.globl _P3_1
	.globl _P3_0
	.globl _P2_7
	.globl _P2_6
	.globl _P2_5
	.globl _P2_4
	.globl _P2_3
	.globl _P2_2
	.globl _P2_1
	.globl _P2_0
	.globl _P1_7
	.globl _P1_6
	.globl _P1_5
	.globl _P1_4
	.globl _P1_3
	.globl _P1_2
	.globl _P1_1
	.globl _P1_0
	.globl _P0_7
	.globl _P0_6
	.globl _P0_5
	.globl _P0_4
	.globl _P0_3
	.globl _P0_2
	.globl _P0_1
	.globl _P0_0
	.globl _PS
	.globl _PT1
	.globl _PX1
	.globl _PT0
	.globl _PX0
	.globl _EA
	.globl _ES
	.globl _ET1
	.globl _EX1
	.globl _ET0
	.globl _EX0
	.globl _BREG_F7
	.globl _BREG_F6
	.globl _BREG_F5
	.globl _BREG_F4
	.globl _BREG_F3
	.globl _BREG_F2
	.globl _BREG_F1
	.globl _BREG_F0
	.globl _TMOD
	.globl _TL1
	.globl _TL0
	.globl _TH1
	.globl _TH0
	.globl _TCON
	.globl _SP
	.globl _SCON
	.globl _SBUF0
	.globl _SBUF
	.globl _PSW
	.globl _PCON
	.globl _P3
	.globl _P2
	.globl _P1
	.globl _P0
	.globl _IP
	.globl _IE
	.globl _DP0L
	.globl _DPL
	.globl _DP0H
	.globl _DPH
	.globl _B
	.globl _ACC
;--------------------------------------------------------
; special function registers
;--------------------------------------------------------
	.area RSEG    (ABS,DATA)
	.org 0x0000
_ACC	=	0x00e0
_B	=	0x00f0
_DPH	=	0x0083
_DP0H	=	0x0083
_DPL	=	0x0082
_DP0L	=	0x0082
_IE	=	0x00a8
_IP	=	0x00b8
_P0	=	0x0080
_P1	=	0x0090
_P2	=	0x00a0
_P3	=	0x00b0
_PCON	=	0x0087
_PSW	=	0x00d0
_SBUF	=	0x0099
_SBUF0	=	0x0099
_SCON	=	0x0098
_SP	=	0x0081
_TCON	=	0x0088
_TH0	=	0x008c
_TH1	=	0x008d
_TL0	=	0x008a
_TL1	=	0x008b
_TMOD	=	0x0089
;--------------------------------------------------------
; special function bits
;--------------------------------------------------------
	.area RSEG    (ABS,DATA)
	.org 0x0000
_BREG_F0	=	0x00f0
_BREG_F1	=	0x00f1
_BREG_F2	=	0x00f2
_BREG_F3	=	0x00f3
_BREG_F4	=	0x00f4
_BREG_F5	=	0x00f5
_BREG_F6	=	0x00f6
_BREG_F7	=	0x00f7
_EX0	=	0x00a8
_ET0	=	0x00a9
_EX1	=	0x00aa
_ET1	=	0x00ab
_ES	=	0x00ac
_EA	=	0x00af
_PX0	=	0x00b8
_PT0	=	0x00b9
_PX1	=	0x00ba
_PT1	=	0x00bb
_PS	=	0x00bc
_P0_0	=	0x0080
_P0_1	=	0x0081
_P0_2	=	0x0082
_P0_3	=	0x0083
_P0_4	=	0x0084
_P0_5	=	0x0085
_P0_6	=	0x0086
_P0_7	=	0x0087
_P1_0	=	0x0090
_P1_1	=	0x0091
_P1_2	=	0x0092
_P1_3	=	0x0093
_P1_4	=	0x0094
_P1_5	=	0x0095
_P1_6	=	0x0096
_P1_7	=	0x0097
_P2_0	=	0x00a0
_P2_1	=	0x00a1
_P2_2	=	0x00a2
_P2_3	=	0x00a3
_P2_4	=	0x00a4
_P2_5	=	0x00a5
_P2_6	=	0x00a6
_P2_7	=	0x00a7
_P3_0	=	0x00b0
_P3_1	=	0x00b1
_P3_2	=	0x00b2
_P3_3	=	0x00b3
_P3_4	=	0x00b4
_P3_5	=	0x00b5
_P3_6	=	0x00b6
_P3_7	=	0x00b7
_RXD	=	0x00b0
_RXD0	=	0x00b0
_TXD	=	0x00b1
_TXD0	=	0x00b1
_INT0	=	0x00b2
_INT1	=	0x00b3
_T0	=	0x00b4
_T1	=	0x00b5
_WR	=	0x00b6
_RD	=	0x00b7
_P	=	0x00d0
_F1	=	0x00d1
_OV	=	0x00d2
_RS0	=	0x00d3
_RS1	=	0x00d4
_F0	=	0x00d5
_AC	=	0x00d6
_CY	=	0x00d7
_RI	=	0x0098
_TI	=	0x0099
_RB8	=	0x009a
_TB8	=	0x009b
_REN	=	0x009c
_SM2	=	0x009d
_SM1	=	0x009e
_SM0	=	0x009f
_IT0	=	0x0088
_IE0	=	0x0089
_IT1	=	0x008a
_IE1	=	0x008b
_TR0	=	0x008c
_TF0	=	0x008d
_TR1	=	0x008e
_TF1	=	0x008f
;--------------------------------------------------------
; overlayable register banks
;--------------------------------------------------------
	.area REG_BANK_0	(REL,OVR,DATA)
	.ds 8
;--------------------------------------------------------
; internal ram data
;--------------------------------------------------------
	.area DSEG    (DATA)
_play_snake_1_1:
	.ds 5
;--------------------------------------------------------
; overlayable items in internal ram 
;--------------------------------------------------------
	.area	OSEG    (OVR,DATA)
;--------------------------------------------------------
; Stack segment in internal ram 
;--------------------------------------------------------
	.area	SSEG	(DATA)
__start__stack:
	.ds	1

;--------------------------------------------------------
; indirectly addressable internal ram data
;--------------------------------------------------------
	.area ISEG    (DATA)
;--------------------------------------------------------
; absolute internal ram data
;--------------------------------------------------------
	.area IABS    (ABS,DATA)
	.area IABS    (ABS,DATA)
;--------------------------------------------------------
; bit data
;--------------------------------------------------------
	.area BSEG    (BIT)
;--------------------------------------------------------
; paged external ram data
;--------------------------------------------------------
	.area PSEG    (PAG,XDATA)
;--------------------------------------------------------
; external ram data
;--------------------------------------------------------
	.area XSEG    (XDATA)
;--------------------------------------------------------
; absolute external ram data
;--------------------------------------------------------
	.area XABS    (ABS,XDATA)
;--------------------------------------------------------
; external initialized ram data
;--------------------------------------------------------
	.area XISEG   (XDATA)
	.area HOME    (CODE)
	.area GSINIT0 (CODE)
	.area GSINIT1 (CODE)
	.area GSINIT2 (CODE)
	.area GSINIT3 (CODE)
	.area GSINIT4 (CODE)
	.area GSINIT5 (CODE)
	.area GSINIT  (CODE)
	.area GSFINAL (CODE)
	.area CSEG    (CODE)
;--------------------------------------------------------
; interrupt vector 
;--------------------------------------------------------
	.area HOME    (CODE)
__interrupt_vect:
	ljmp	__sdcc_gsinit_startup
;--------------------------------------------------------
; global & static initialisations
;--------------------------------------------------------
	.area HOME    (CODE)
	.area GSINIT  (CODE)
	.area GSFINAL (CODE)
	.area GSINIT  (CODE)
	.globl __sdcc_gsinit_startup
	.globl __sdcc_program_startup
	.globl __start__stack
	.globl __mcs51_genXINIT
	.globl __mcs51_genXRAMCLEAR
	.globl __mcs51_genRAMCLEAR
	.area GSFINAL (CODE)
	ljmp	__sdcc_program_startup
;--------------------------------------------------------
; Home
;--------------------------------------------------------
	.area HOME    (CODE)
	.area HOME    (CODE)
__sdcc_program_startup:
	lcall	_main
;	return from main will lock up
	sjmp .
;--------------------------------------------------------
; code
;--------------------------------------------------------
	.area CSEG    (CODE)
;------------------------------------------------------------
;Allocation info for local variables in function 'pause'
;------------------------------------------------------------
;t                         Allocated to registers r2 r3 
;n                         Allocated to registers r4 r5 
;------------------------------------------------------------
;	../main.c:16: void pause(unsigned int t) {
;	-----------------------------------------
;	 function pause
;	-----------------------------------------
_pause:
	ar2 = 0x02
	ar3 = 0x03
	ar4 = 0x04
	ar5 = 0x05
	ar6 = 0x06
	ar7 = 0x07
	ar0 = 0x00
	ar1 = 0x01
	mov	r2,dpl
	mov	r3,dph
;	../main.c:18: for (n=0; n < t; n++);
	mov	r4,#0x00
	mov	r5,#0x00
00101$:
	clr	c
	mov	a,r4
	subb	a,r2
	mov	a,r5
	subb	a,r3
	jnc	00105$
	inc	r4
	cjne	r4,#0x00,00101$
	inc	r5
	sjmp	00101$
00105$:
	ret
;------------------------------------------------------------
;Allocation info for local variables in function 'initialize'
;------------------------------------------------------------
;------------------------------------------------------------
;	../main.c:21: void initialize() {
;	-----------------------------------------
;	 function initialize
;	-----------------------------------------
_initialize:
;	../main.c:22: STDIO_initialize();
	lcall	_STDIO_initialize
;	../main.c:23: GMB_initialize();
	ljmp	_GMB_initialize
;------------------------------------------------------------
;Allocation info for local variables in function 'play'
;------------------------------------------------------------
;snake                     Allocated with name '_play_snake_1_1'
;keyboard                  Allocated to registers r2 r3 r4 
;arrow                     Allocated to registers 
;------------------------------------------------------------
;	../main.c:26: void play() {
;	-----------------------------------------
;	 function play
;	-----------------------------------------
_play:
;	../main.c:27: Snake snake = {MOVES_RIGHT, {10, 10}, ALIVE, 5};
	mov	_play_snake_1_1,#0x03
	mov	(_play_snake_1_1 + 0x0001),#0x0A
	mov	(_play_snake_1_1 + 0x0002),#0x0A
	mov	(_play_snake_1_1 + 0x0003),#0x00
	mov	(_play_snake_1_1 + 0x0004),#0x05
;	../main.c:28: unsigned char *keyboard = (unsigned char __xdata *) 0x3000;
	mov	r2,#0x00
	mov	r3,#0x30
	mov	r4,#0x00
;	../main.c:31: GMB_draw(SNAKE_LIMIT_X0, SNAKE_LIMIT_Y0, SNAKE_LIMIT_X1, SNAKE_LIMIT_Y1);
	mov	_GMB_draw_PARM_2,#0x00
	mov	_GMB_draw_PARM_3,#0x1D
	mov	_GMB_draw_PARM_4,#0x0F
	mov	dpl,#0x00
	push	ar2
	push	ar3
	push	ar4
	lcall	_GMB_draw
;	../main.c:32: FRUIT_place();
	lcall	_FRUIT_place
	pop	ar4
	pop	ar3
	pop	ar2
;	../main.c:33: do {
00103$:
;	../main.c:34: arrow = KEYBOARD_readArrows(keyboard);
	mov	dpl,r2
	mov	dph,r3
	mov	b,r4
	push	ar2
	push	ar3
	push	ar4
	lcall	_KEYBOARD_readArrows
	mov	_SNAKE_iterate_PARM_2,dpl
;	../main.c:35: if (SNAKE_iterate(&snake, arrow) == EATING) {
	mov	dptr,#_play_snake_1_1
	mov	b,#0x40
	lcall	_SNAKE_iterate
	mov	r5,dpl
	pop	ar4
	pop	ar3
	pop	ar2
	cjne	r5,#0x02,00102$
;	../main.c:36: FRUIT_place();
	push	ar2
	push	ar3
	push	ar4
	lcall	_FRUIT_place
	pop	ar4
	pop	ar3
	pop	ar2
00102$:
;	../main.c:38: pause(20000);
	mov	dptr,#0x4E20
	push	ar2
	push	ar3
	push	ar4
	lcall	_pause
	pop	ar4
	pop	ar3
	pop	ar2
;	../main.c:39: } while (snake.status != DEAD);
	mov	a,#0x01
	cjne	a,(_play_snake_1_1 + 0x0003),00103$
;	../main.c:40: GMB_display(3, 7, " Le serpent est mort ");
	mov	_GMB_display_PARM_3,#__str_0
	mov	(_GMB_display_PARM_3 + 1),#(__str_0 >> 8)
	mov	(_GMB_display_PARM_3 + 2),#0x80
	mov	_GMB_display_PARM_2,#0x07
	mov	dpl,#0x03
	ljmp	_GMB_display
;------------------------------------------------------------
;Allocation info for local variables in function 'main'
;------------------------------------------------------------
;------------------------------------------------------------
;	../main.c:43: void main(void) {
;	-----------------------------------------
;	 function main
;	-----------------------------------------
_main:
;	../main.c:44: initialize();
	lcall	_initialize
;	../main.c:45: play();
	lcall	_play
;	../main.c:47: while(1);
00102$:
	sjmp	00102$
	.area CSEG    (CODE)
	.area CONST   (CODE)
__str_0:
	.ascii " Le serpent est mort "
	.db 0x00
	.area XINIT   (CODE)
	.area CABS    (ABS,CODE)
